ARM GAS  C:\Users\claude\AppData\Local\Temp\ccJ9u1UF.s 			page 1


   1              		.cpu cortex-m0
   2              		.fpu softvfp
   3              		.eabi_attribute 20, 1
   4              		.eabi_attribute 21, 1
   5              		.eabi_attribute 23, 3
   6              		.eabi_attribute 24, 1
   7              		.eabi_attribute 25, 1
   8              		.eabi_attribute 26, 1
   9              		.eabi_attribute 30, 1
  10              		.eabi_attribute 34, 0
  11              		.eabi_attribute 18, 4
  12              		.code	16
  13              		.file	"butleddim.c"
  14              		.text
  15              	.Ltext0:
  16              		.cfi_sections	.debug_frame
  17              		.section	.text.analog_dim,"ax",%progbits
  18              		.align	2
  19              		.global	analog_dim
  20              		.code	16
  21              		.thumb_func
  22              		.type	analog_dim, %function
  23              	analog_dim:
  24              	.LFB34:
  25              		.file 1 "butleddim.c"
   1:butleddim.c   **** /* ========================================
   2:butleddim.c   ****  *
   3:butleddim.c   ****  * Copyright YOUR COMPANY, THE YEAR
   4:butleddim.c   ****  * All Rights Reserved
   5:butleddim.c   ****  * UNPUBLISHED, LICENSED SOFTWARE.
   6:butleddim.c   ****  *
   7:butleddim.c   ****  * CONFIDENTIAL AND PROPRIETARY INFORMATION
   8:butleddim.c   ****  * WHICH IS THE PROPERTY OF your company.
   9:butleddim.c   ****  *
  10:butleddim.c   ****  * ========================================
  11:butleddim.c   **** */
  12:butleddim.c   **** #include "project.h"
  13:butleddim.c   **** #include <stdio.h>
  14:butleddim.c   **** 
  15:butleddim.c   **** void analog_dim()
  16:butleddim.c   **** {
  26              		.loc 1 16 0
  27              		.cfi_startproc
  28 0000 10B5     		push	{r4, lr}
  29              		.cfi_def_cfa_offset 8
  30              		.cfi_offset 4, -8
  31              		.cfi_offset 14, -4
  32              	.LVL0:
  17:butleddim.c   ****     
  18:butleddim.c   ****     
  19:butleddim.c   ****     uint16 value = 0;
  20:butleddim.c   ****     
  21:butleddim.c   ****     ADC_JOY_Start();
  33              		.loc 1 21 0
  34 0002 FFF7FEFF 		bl	ADC_JOY_Start
  35              	.LVL1:
  22:butleddim.c   **** 
ARM GAS  C:\Users\claude\AppData\Local\Temp\ccJ9u1UF.s 			page 2


  23:butleddim.c   ****     ADC_JOY_StartConvert();
  36              		.loc 1 23 0
  37 0006 FFF7FEFF 		bl	ADC_JOY_StartConvert
  38              	.LVL2:
  24:butleddim.c   ****     
  25:butleddim.c   ****     PWM_1_Enable();
  39              		.loc 1 25 0
  40 000a FFF7FEFF 		bl	PWM_1_Enable
  41              	.LVL3:
  26:butleddim.c   ****     PWM_1_Start();
  42              		.loc 1 26 0
  43 000e FFF7FEFF 		bl	PWM_1_Start
  44              	.LVL4:
  27:butleddim.c   ****     PWM_1_WriteCompare(value);
  45              		.loc 1 27 0
  46 0012 0020     		mov	r0, #0
  47 0014 FFF7FEFF 		bl	PWM_1_WriteCompare
  48              	.LVL5:
  28:butleddim.c   ****     PWM_1_WritePeriod(255);
  49              		.loc 1 28 0
  50 0018 FF20     		mov	r0, #255
  51 001a FFF7FEFF 		bl	PWM_1_WritePeriod
  52              	.LVL6:
  29:butleddim.c   ****     
  30:butleddim.c   ****     uint8 onoff = 1;
  53              		.loc 1 30 0
  54 001e 0124     		mov	r4, #1
  55              	.LVL7:
  56              	.L2:
  31:butleddim.c   ****     
  32:butleddim.c   ****     while (1)
  33:butleddim.c   ****     {
  34:butleddim.c   ****         value = ADC_JOY_GetResult16(0);
  57              		.loc 1 34 0
  58 0020 0020     		mov	r0, #0
  59 0022 FFF7FEFF 		bl	ADC_JOY_GetResult16
  60              	.LVL8:
  61 0026 80B2     		uxth	r0, r0
  62              	.LVL9:
  35:butleddim.c   ****         value = value >> 8;
  63              		.loc 1 35 0
  64 0028 000A     		lsr	r0, r0, #8
  65              	.LVL10:
  36:butleddim.c   **** //        CyDelay(50);
  37:butleddim.c   ****         PWM_1_WriteCompare(value);
  66              		.loc 1 37 0
  67 002a FFF7FEFF 		bl	PWM_1_WriteCompare
  68              	.LVL11:
  38:butleddim.c   ****         if (!Pin_B_A_Read())
  69              		.loc 1 38 0
  70 002e FFF7FEFF 		bl	Pin_B_A_Read
  71              	.LVL12:
  72 0032 0028     		cmp	r0, #0
  73 0034 F4D1     		bne	.L2
  39:butleddim.c   ****         {
  40:butleddim.c   ****             CyDelay(5);
  74              		.loc 1 40 0
ARM GAS  C:\Users\claude\AppData\Local\Temp\ccJ9u1UF.s 			page 3


  75 0036 0530     		add	r0, r0, #5
  76 0038 FFF7FEFF 		bl	CyDelay
  77              	.LVL13:
  41:butleddim.c   ****             if (!Pin_B_A_Read())
  78              		.loc 1 41 0
  79 003c FFF7FEFF 		bl	Pin_B_A_Read
  80              	.LVL14:
  81 0040 0028     		cmp	r0, #0
  82 0042 EDD1     		bne	.L2
  42:butleddim.c   ****             {
  43:butleddim.c   ****                 if (onoff)
  83              		.loc 1 43 0
  84 0044 002C     		cmp	r4, #0
  85 0046 03D0     		beq	.L4
  86              	.LVL15:
  44:butleddim.c   ****                 {
  45:butleddim.c   ****                     onoff = 0;
  46:butleddim.c   ****                     PWM_1_Stop();
  87              		.loc 1 46 0
  88 0048 FFF7FEFF 		bl	PWM_1_Stop
  89              	.LVL16:
  45:butleddim.c   ****                     PWM_1_Stop();
  90              		.loc 1 45 0
  91 004c 0024     		mov	r4, #0
  92 004e 02E0     		b	.L6
  93              	.LVL17:
  94              	.L4:
  47:butleddim.c   ****                 }
  48:butleddim.c   ****                 else
  49:butleddim.c   ****                 {
  50:butleddim.c   ****                     onoff = 1;
  51:butleddim.c   ****                     PWM_1_Start();
  95              		.loc 1 51 0
  96 0050 FFF7FEFF 		bl	PWM_1_Start
  97              	.LVL18:
  50:butleddim.c   ****                     PWM_1_Start();
  98              		.loc 1 50 0
  99 0054 0124     		mov	r4, #1
 100              	.LVL19:
 101              	.L6:
  52:butleddim.c   ****                 }
  53:butleddim.c   ****                 while(!Pin_B_A_Read());
 102              		.loc 1 53 0 discriminator 1
 103 0056 FFF7FEFF 		bl	Pin_B_A_Read
 104              	.LVL20:
 105 005a 0028     		cmp	r0, #0
 106 005c FBD0     		beq	.L6
 107 005e DFE7     		b	.L2
 108              		.cfi_endproc
 109              	.LFE34:
 110              		.size	analog_dim, .-analog_dim
 111              		.section	.text.active_dim_led,"ax",%progbits
 112              		.align	2
 113              		.global	active_dim_led
 114              		.code	16
 115              		.thumb_func
 116              		.type	active_dim_led, %function
ARM GAS  C:\Users\claude\AppData\Local\Temp\ccJ9u1UF.s 			page 4


 117              	active_dim_led:
 118              	.LFB35:
  54:butleddim.c   ****             }
  55:butleddim.c   ****         }
  56:butleddim.c   ****     }
  57:butleddim.c   **** }
  58:butleddim.c   **** 
  59:butleddim.c   **** 
  60:butleddim.c   **** void active_dim_led(uint8 (*f)(void))
  61:butleddim.c   **** {
 119              		.loc 1 61 0
 120              		.cfi_startproc
 121              	.LVL21:
 122 0000 70B5     		push	{r4, r5, r6, lr}
 123              		.cfi_def_cfa_offset 16
 124              		.cfi_offset 4, -16
 125              		.cfi_offset 5, -12
 126              		.cfi_offset 6, -8
 127              		.cfi_offset 14, -4
 128 0002 041C     		mov	r4, r0
 129              	.LVL22:
  62:butleddim.c   ****     
  63:butleddim.c   ****     uint16 value = 0;
  64:butleddim.c   ****     uint8 leddim = 1;
  65:butleddim.c   ****     
  66:butleddim.c   ****     PWM_1_Enable();
 130              		.loc 1 66 0
 131 0004 FFF7FEFF 		bl	PWM_1_Enable
 132              	.LVL23:
  67:butleddim.c   ****     PWM_1_Start();
 133              		.loc 1 67 0
 134 0008 FFF7FEFF 		bl	PWM_1_Start
 135              	.LVL24:
  68:butleddim.c   ****     PWM_1_WriteCompare(value);
 136              		.loc 1 68 0
 137 000c 0020     		mov	r0, #0
 138 000e FFF7FEFF 		bl	PWM_1_WriteCompare
 139              	.LVL25:
  64:butleddim.c   ****     
 140              		.loc 1 64 0
 141 0012 0126     		mov	r6, #1
  63:butleddim.c   ****     uint8 leddim = 1;
 142              		.loc 1 63 0
 143 0014 0025     		mov	r5, #0
 144              	.LVL26:
 145              	.L9:
  69:butleddim.c   ****     while (1)
  70:butleddim.c   ****     {
  71:butleddim.c   ****  
  72:butleddim.c   ****         if (!(*f)())
 146              		.loc 1 72 0
 147 0016 A047     		blx	r4
 148              	.LVL27:
 149 0018 0028     		cmp	r0, #0
 150 001a FCD1     		bne	.L9
  73:butleddim.c   ****         {
  74:butleddim.c   ****             CyDelay(5);
ARM GAS  C:\Users\claude\AppData\Local\Temp\ccJ9u1UF.s 			page 5


 151              		.loc 1 74 0
 152 001c 0530     		add	r0, r0, #5
 153 001e FFF7FEFF 		bl	CyDelay
 154              	.LVL28:
  75:butleddim.c   ****             if (!(*f)())
 155              		.loc 1 75 0
 156 0022 A047     		blx	r4
 157              	.LVL29:
 158 0024 0028     		cmp	r0, #0
 159 0026 F6D1     		bne	.L9
  76:butleddim.c   ****             {
  77:butleddim.c   ****                 if (leddim)
 160              		.loc 1 77 0
 161 0028 002E     		cmp	r6, #0
 162 002a 02D0     		beq	.L11
  78:butleddim.c   ****                     value += 3;
 163              		.loc 1 78 0
 164 002c 0335     		add	r5, r5, #3
 165              	.LVL30:
 166 002e ADB2     		uxth	r5, r5
 167              	.LVL31:
 168 0030 01E0     		b	.L12
 169              	.L11:
  79:butleddim.c   ****                 else
  80:butleddim.c   ****                     value -= 3;
 170              		.loc 1 80 0
 171 0032 033D     		sub	r5, r5, #3
 172              	.LVL32:
 173 0034 ADB2     		uxth	r5, r5
 174              	.LVL33:
 175              	.L12:
  81:butleddim.c   ****                 
  82:butleddim.c   ****                 if (value >= 1000)
 176              		.loc 1 82 0
 177 0036 064B     		ldr	r3, .L17
 178 0038 9D42     		cmp	r5, r3
 179 003a 02D8     		bhi	.L15
  83:butleddim.c   ****                     leddim = 0;
  84:butleddim.c   ****                 else if (value <= 0)
 180              		.loc 1 84 0
 181 003c 002D     		cmp	r5, #0
 182 003e 02D0     		beq	.L16
 183 0040 02E0     		b	.L13
 184              	.L15:
  83:butleddim.c   ****                     leddim = 0;
 185              		.loc 1 83 0
 186 0042 0026     		mov	r6, #0
 187              	.LVL34:
 188 0044 00E0     		b	.L13
 189              	.LVL35:
 190              	.L16:
  85:butleddim.c   ****                     leddim = 1;
 191              		.loc 1 85 0
 192 0046 0126     		mov	r6, #1
 193              	.LVL36:
 194              	.L13:
  86:butleddim.c   ****                 PWM_1_WriteCompare(value);
ARM GAS  C:\Users\claude\AppData\Local\Temp\ccJ9u1UF.s 			page 6


 195              		.loc 1 86 0
 196 0048 281C     		mov	r0, r5
 197 004a FFF7FEFF 		bl	PWM_1_WriteCompare
 198              	.LVL37:
 199 004e E2E7     		b	.L9
 200              	.L18:
 201              		.align	2
 202              	.L17:
 203 0050 E7030000 		.word	999
 204              		.cfi_endproc
 205              	.LFE35:
 206              		.size	active_dim_led, .-active_dim_led
 207              		.text
 208              	.Letext0:
 209              		.file 2 "Generated_Source\\PSoC4/cytypes.h"
 210              		.file 3 "Generated_Source\\PSoC4/ADC_JOY.h"
 211              		.file 4 "Generated_Source\\PSoC4/PWM_1.h"
 212              		.file 5 "Generated_Source\\PSoC4/CyLib.h"
 213              		.file 6 "Generated_Source\\PSoC4/Pin_B_A.h"